target datalayout = "e-m:e-p270:32:32-p271:32:32-p272:64:64-i64:64-i128:128-f80:128-n8:16:32:64-S128"
target triple = "x86_64-pc-linux-gnu"

%struct.evbuffer_file_segment = type { ptr, i32, i32, i8, i32, ptr, ptr, i64, i64, i64, ptr, ptr }

@.str.3 = private unnamed_addr constant [45 x i8] c"%s: mmap(NULL, %zu, %d, %d, %d, %lld) failed\00", align 1
@__func__.evbuffer_file_segment_materialize = private unnamed_addr constant [34 x i8] c"evbuffer_file_segment_materialize\00", align 1

; Function Attrs: nounwind uwtable
define internal i64 @get_page_size() #0 {
  %1 = call i64 @sysconf(i32 noundef 30) #10
  ret i64 %1
}

; Function Attrs: nounwind uwtable
define internal i32 @evbuffer_file_segment_materialize(ptr noundef %0) #0 {
  %2 = alloca i32, align 4
  %3 = alloca ptr, align 8
  %4 = alloca i32, align 4
  %5 = alloca i32, align 4
  %6 = alloca i64, align 8
  %7 = alloca i64, align 8
  %8 = alloca i32, align 4
  %9 = alloca i64, align 8
  %10 = alloca i64, align 8
  %11 = alloca i32, align 4
  %12 = alloca ptr, align 8
  %13 = alloca i64, align 8
  %14 = alloca i64, align 8
  %15 = alloca i64, align 8
  %16 = alloca ptr, align 8
  store ptr %0, ptr %3, align 8
  call void @llvm.lifetime.start.p0(i64 4, ptr %4) #10
  %17 = load ptr, ptr %3, align 8
  %18 = getelementptr inbounds nuw %struct.evbuffer_file_segment, ptr %17, i32 0, i32 2
  %19 = load i32, ptr %18, align 4
  store i32 %19, ptr %4, align 4
  call void @llvm.lifetime.start.p0(i64 4, ptr %5) #10
  %20 = load ptr, ptr %3, align 8
  %21 = getelementptr inbounds nuw %struct.evbuffer_file_segment, ptr %20, i32 0, i32 4
  %22 = load i32, ptr %21, align 4
  store i32 %22, ptr %5, align 4
  call void @llvm.lifetime.start.p0(i64 8, ptr %6) #10
  %23 = load ptr, ptr %3, align 8
  %24 = getelementptr inbounds nuw %struct.evbuffer_file_segment, ptr %23, i32 0, i32 9
  %25 = load i64, ptr %24, align 8
  store i64 %25, ptr %6, align 8
  call void @llvm.lifetime.start.p0(i64 8, ptr %7) #10
  %26 = load ptr, ptr %3, align 8
  %27 = getelementptr inbounds nuw %struct.evbuffer_file_segment, ptr %26, i32 0, i32 7
  %28 = load i64, ptr %27, align 8
  store i64 %28, ptr %7, align 8
  %29 = load ptr, ptr %3, align 8
  %30 = getelementptr inbounds nuw %struct.evbuffer_file_segment, ptr %29, i32 0, i32 6
  %31 = load ptr, ptr %30, align 8
  %32 = icmp ne ptr %31, null
  br i1 %32, label %41, label %33

33:                                               ; preds = %1
  %34 = load ptr, ptr %3, align 8
  %35 = getelementptr inbounds nuw %struct.evbuffer_file_segment, ptr %34, i32 0, i32 3
  %36 = load i8, ptr %35, align 8
  %37 = lshr i8 %36, 1
  %38 = and i8 %37, 1
  %39 = zext i8 %38 to i32
  %40 = icmp ne i32 %39, 0
  br i1 %40, label %41, label %42

41:                                               ; preds = %33, %1
  store i32 0, ptr %2, align 4
  store i32 1, ptr %8, align 4
  br label %151

42:                                               ; preds = %33
  %43 = load i32, ptr %4, align 4
  %44 = and i32 %43, 2
  %45 = icmp ne i32 %44, 0
  br i1 %45, label %101, label %46

46:                                               ; preds = %42
  call void @llvm.lifetime.start.p0(i64 8, ptr %9) #10
  store i64 0, ptr %9, align 8
  call void @llvm.lifetime.start.p0(i64 8, ptr %10) #10
  store i64 0, ptr %10, align 8
  call void @llvm.lifetime.start.p0(i64 4, ptr %11) #10
  store i32 2, ptr %11, align 4
  call void @llvm.lifetime.start.p0(i64 8, ptr %12) #10
  %47 = load i64, ptr %7, align 8
  %48 = icmp ne i64 %47, 0
  br i1 %48, label %49, label %64

49:                                               ; preds = %46
  call void @llvm.lifetime.start.p0(i64 8, ptr %13) #10
  %50 = call i64 @get_page_size()
  store i64 %50, ptr %13, align 8
  %51 = load i64, ptr %13, align 8
  %52 = icmp eq i64 %51, -1
  br i1 %52, label %53, label %54

53:                                               ; preds = %49
  store i32 2, ptr %8, align 4
  br label %61

54:                                               ; preds = %49
  %55 = load i64, ptr %7, align 8
  %56 = load i64, ptr %13, align 8
  %57 = srem i64 %55, %56
  store i64 %57, ptr %10, align 8
  %58 = load i64, ptr %7, align 8
  %59 = load i64, ptr %10, align 8
  %60 = sub nsw i64 %58, %59
  store i64 %60, ptr %9, align 8
  store i32 0, ptr %8, align 4
  br label %61

61:                                               ; preds = %53, %54
  call void @llvm.lifetime.end.p0(i64 8, ptr %13) #10
  %62 = load i32, ptr %8, align 4
  switch i32 %62, label %98 [
    i32 0, label %63
  ]

63:                                               ; preds = %61
  br label %64

64:                                               ; preds = %63, %46
  %65 = load i64, ptr %6, align 8
  %66 = load i64, ptr %10, align 8
  %67 = add nsw i64 %65, %66
  %68 = load i32, ptr %11, align 4
  %69 = load i32, ptr %5, align 4
  %70 = load i64, ptr %9, align 8
  %71 = call ptr @mmap64(ptr noundef null, i64 noundef %67, i32 noundef 1, i32 noundef %68, i32 noundef %69, i64 noundef %70) #10
  store ptr %71, ptr %12, align 8
  %72 = load ptr, ptr %12, align 8
  %73 = icmp eq ptr %72, inttoptr (i64 -1 to ptr)
  br i1 %73, label %74, label %81

74:                                               ; preds = %64
  %75 = load i64, ptr %6, align 8
  %76 = load i64, ptr %10, align 8
  %77 = add nsw i64 %75, %76
  %78 = load i32, ptr %11, align 4
  %79 = load i32, ptr %5, align 4
  %80 = load i64, ptr %9, align 8
  call void (ptr, ...) @event_warn(ptr noundef @.str.3, ptr noundef @__func__.evbuffer_file_segment_materialize, i64 noundef %77, i32 noundef 1, i32 noundef %78, i32 noundef %79, i64 noundef %80)
  br label %97

81:                                               ; preds = %64
  %82 = load ptr, ptr %12, align 8
  %83 = load ptr, ptr %3, align 8
  %84 = getelementptr inbounds nuw %struct.evbuffer_file_segment, ptr %83, i32 0, i32 5
  store ptr %82, ptr %84, align 8
  %85 = load ptr, ptr %12, align 8
  %86 = load i64, ptr %10, align 8
  %87 = getelementptr inbounds i8, ptr %85, i64 %86
  %88 = load ptr, ptr %3, align 8
  %89 = getelementptr inbounds nuw %struct.evbuffer_file_segment, ptr %88, i32 0, i32 6
  store ptr %87, ptr %89, align 8
  %90 = load ptr, ptr %3, align 8
  %91 = getelementptr inbounds nuw %struct.evbuffer_file_segment, ptr %90, i32 0, i32 8
  store i64 0, ptr %91, align 8
  %92 = load ptr, ptr %3, align 8
  %93 = getelementptr inbounds nuw %struct.evbuffer_file_segment, ptr %92, i32 0, i32 3
  %94 = load i8, ptr %93, align 8
  %95 = and i8 %94, -3
  %96 = or i8 %95, 2
  store i8 %96, ptr %93, align 8
  store i32 3, ptr %8, align 4
  br label %98

97:                                               ; preds = %74
  store i32 0, ptr %8, align 4
  br label %98

98:                                               ; preds = %81, %97, %61
  call void @llvm.lifetime.end.p0(i64 8, ptr %12) #10
  call void @llvm.lifetime.end.p0(i64 4, ptr %11) #10
  call void @llvm.lifetime.end.p0(i64 8, ptr %10) #10
  call void @llvm.lifetime.end.p0(i64 8, ptr %9) #10
  %99 = load i32, ptr %8, align 4
  switch i32 %99, label %151 [
    i32 0, label %100
    i32 3, label %149
    i32 2, label %150
  ]

100:                                              ; preds = %98
  br label %101

101:                                              ; preds = %100, %42
  call void @llvm.lifetime.start.p0(i64 8, ptr %14) #10
  store i64 0, ptr %14, align 8
  call void @llvm.lifetime.start.p0(i64 8, ptr %15) #10
  store i64 0, ptr %15, align 8
  call void @llvm.lifetime.start.p0(i64 8, ptr %16) #10
  %102 = load i64, ptr %6, align 8
  %103 = call ptr @event_mm_malloc_(i64 noundef %102)
  store ptr %103, ptr %16, align 8
  %104 = icmp ne ptr %103, null
  br i1 %104, label %106, label %105

105:                                              ; preds = %101
  store i32 2, ptr %8, align 4
  br label %146

106:                                              ; preds = %101
  br label %107

107:                                              ; preds = %126, %106
  %108 = load i64, ptr %14, align 8
  %109 = load i64, ptr %6, align 8
  %110 = icmp slt i64 %108, %109
  br i1 %110, label %111, label %130

111:                                              ; preds = %107
  %112 = load i32, ptr %5, align 4
  %113 = load ptr, ptr %16, align 8
  %114 = load i64, ptr %14, align 8
  %115 = getelementptr inbounds i8, ptr %113, i64 %114
  %116 = load i64, ptr %6, align 8
  %117 = load i64, ptr %14, align 8
  %118 = sub nsw i64 %116, %117
  %119 = load i64, ptr %7, align 8
  %120 = load i64, ptr %14, align 8
  %121 = add nsw i64 %119, %120
  %122 = call i64 @pread(i32 noundef %112, ptr noundef %115, i64 noundef %118, i64 noundef %121)
  store i64 %122, ptr %15, align 8
  %123 = load i64, ptr %15, align 8
  %124 = icmp sle i64 %123, 0
  br i1 %124, label %125, label %126

125:                                              ; preds = %111
  br label %130

126:                                              ; preds = %111
  %127 = load i64, ptr %15, align 8
  %128 = load i64, ptr %14, align 8
  %129 = add nsw i64 %128, %127
  store i64 %129, ptr %14, align 8
  br label %107, !llvm.loop !36

130:                                              ; preds = %125, %107
  %131 = load i64, ptr %15, align 8
  %132 = icmp slt i64 %131, 0
  br i1 %132, label %140, label %133

133:                                              ; preds = %130
  %134 = load i64, ptr %15, align 8
  %135 = icmp eq i64 %134, 0
  br i1 %135, label %136, label %142

136:                                              ; preds = %133
  %137 = load i64, ptr %6, align 8
  %138 = load i64, ptr %14, align 8
  %139 = icmp sgt i64 %137, %138
  br i1 %139, label %140, label %142

140:                                              ; preds = %136, %130
  %141 = load ptr, ptr %16, align 8
  call void @event_mm_free_(ptr noundef %141)
  store i32 2, ptr %8, align 4
  br label %146

142:                                              ; preds = %136, %133
  %143 = load ptr, ptr %16, align 8
  %144 = load ptr, ptr %3, align 8
  %145 = getelementptr inbounds nuw %struct.evbuffer_file_segment, ptr %144, i32 0, i32 6
  store ptr %143, ptr %145, align 8
  store i32 0, ptr %8, align 4
  br label %146

146:                                              ; preds = %140, %105, %142
  call void @llvm.lifetime.end.p0(i64 8, ptr %16) #10
  call void @llvm.lifetime.end.p0(i64 8, ptr %15) #10
  call void @llvm.lifetime.end.p0(i64 8, ptr %14) #10
  %147 = load i32, ptr %8, align 4
  switch i32 %147, label %151 [
    i32 0, label %148
    i32 2, label %150
  ]

148:                                              ; preds = %146
  br label %149

149:                                              ; preds = %148, %98
  store i32 0, ptr %2, align 4
  store i32 1, ptr %8, align 4
  br label %151

150:                                              ; preds = %146, %98
  store i32 -1, ptr %2, align 4
  store i32 1, ptr %8, align 4
  br label %151

151:                                              ; preds = %150, %149, %146, %98, %41
  call void @llvm.lifetime.end.p0(i64 8, ptr %7) #10
  call void @llvm.lifetime.end.p0(i64 8, ptr %6) #10
  call void @llvm.lifetime.end.p0(i64 4, ptr %5) #10
  call void @llvm.lifetime.end.p0(i64 4, ptr %4) #10
  %152 = load i32, ptr %2, align 4
  ret i32 %152
}