; Function Attrs: nounwind uwtable
define internal fastcc range(i32 -1, 1) i32 @evbuffer_file_segment_materialize(ptr noundef captures(none) %0) unnamed_addr #1 {
  %2 = getelementptr inbounds nuw i8, ptr %0, i64 12
  %3 = load i32, ptr %2, align 4
  %4 = getelementptr inbounds nuw i8, ptr %0, i64 20
  %5 = load i32, ptr %4, align 4
  %6 = getelementptr inbounds nuw i8, ptr %0, i64 56
  %7 = load i64, ptr %6, align 8
  %8 = getelementptr inbounds nuw i8, ptr %0, i64 40
  %9 = load i64, ptr %8, align 8
  %10 = getelementptr inbounds nuw i8, ptr %0, i64 32
  %11 = load ptr, ptr %10, align 8
  %.not = icmp eq ptr %11, null
  br i1 %.not, label %12, label %.thread91

12:                                               ; preds = %1
  %13 = getelementptr inbounds nuw i8, ptr %0, i64 16
  %14 = load i8, ptr %13, align 8
  %15 = and i8 %14, 2
  %.not68 = icmp eq i8 %15, 0
  br i1 %.not68, label %16, label %.thread91

16:                                               ; preds = %12
  %17 = and i32 %3, 2
  %.not69 = icmp eq i32 %17, 0
  br i1 %.not69, label %18, label %33

18:                                               ; preds = %16
  %.not70 = icmp eq i64 %9, 0
  br i1 %.not70, label %24, label %19

19:                                               ; preds = %18
  %20 = tail call i64 @sysconf(i32 noundef 30) #16
  %.not71 = icmp eq i64 %20, -1
  br i1 %.not71, label %.thread91, label %21

21:                                               ; preds = %19
  %22 = srem i64 %9, %20
  %23 = sub nsw i64 %9, %22
  br label %24

24:                                               ; preds = %21, %18
  %.060 = phi i64 [ %22, %21 ], [ 0, %18 ]
  %.058 = phi i64 [ %23, %21 ], [ 0, %18 ]
  %25 = add nsw i64 %.060, %7
  %26 = tail call ptr @mmap64(ptr noundef null, i64 noundef %25, i32 noundef 1, i32 noundef 2, i32 noundef %5, i64 noundef %.058) #16
  %27 = icmp eq ptr %26, inttoptr (i64 -1 to ptr)
  br i1 %27, label %.thread81, label %.thread79

.thread81:                                        ; preds = %24
  tail call void (ptr, ...) @event_warn(ptr noundef nonnull @.str.3, ptr noundef nonnull @__func__.evbuffer_file_segment_materialize, i64 noundef %25, i32 noundef 1, i32 noundef 2, i32 noundef %5, i64 noundef %.058) #16
  br label %33

.thread79:                                        ; preds = %24
  %28 = getelementptr inbounds nuw i8, ptr %0, i64 24
  store ptr %26, ptr %28, align 8
  %29 = getelementptr inbounds i8, ptr %26, i64 %.060
  store ptr %29, ptr %10, align 8
  %30 = getelementptr inbounds nuw i8, ptr %0, i64 48
  store i64 0, ptr %30, align 8
  %31 = load i8, ptr %13, align 8
  %32 = or i8 %31, 2
  store i8 %32, ptr %13, align 8
  br label %.thread91

33:                                               ; preds = %.thread81, %16
  %34 = tail call ptr @event_mm_malloc_(i64 noundef %7) #16
  %.not72 = icmp eq ptr %34, null
  br i1 %.not72, label %.thread91, label %.preheader

.preheader:                                       ; preds = %33
  %35 = icmp sgt i64 %7, 0
  br i1 %35, label %.lr.ph, label %.thread86

36:                                               ; preds = %.lr.ph
  %37 = add nuw nsw i64 %42, %.05594
  %38 = icmp slt i64 %37, %7
  br i1 %38, label %.lr.ph, label %.thread86, !llvm.loop !36

.lr.ph:                                           ; preds = %.preheader, %36
  %.05594 = phi i64 [ %37, %36 ], [ 0, %.preheader ]
  %39 = getelementptr inbounds nuw i8, ptr %34, i64 %.05594
  %40 = sub nsw i64 %7, %.05594
  %41 = add nsw i64 %.05594, %9
  %42 = tail call i64 @pread(i32 noundef %5, ptr noundef nonnull %39, i64 noundef %40, i64 noundef %41) #16
  %43 = icmp slt i64 %42, 1
  br i1 %43, label %44, label %36

44:                                               ; preds = %.lr.ph
  tail call void @event_mm_free_(ptr noundef nonnull %34) #16
  br label %.thread91

.thread86:                                        ; preds = %36, %.preheader
  store ptr %34, ptr %10, align 8
  br label %.thread91

.thread91:                                        ; preds = %33, %44, %19, %.thread86, %.thread79, %1, %12
  %.0 = phi i32 [ 0, %12 ], [ 0, %1 ], [ 0, %.thread86 ], [ 0, %.thread79 ], [ -1, %19 ], [ -1, %44 ], [ -1, %33 ]
  ret i32 %.0
}